#include <math.h>
#include <stdio.h>
#include <stdlib.h>
#include <string.h>
#include <iostream>
using namespace std;

int main()
{
	int a, n;
	cin >> n;
	while (n --)
	{
		cin >> a;
		if (a == 1)
			cout << 1 << endl;
		else if (a == 2)
			cout << 1 << endl;
		else
		{
			int a1, a2, a3;
			a1 = 1;
			a2 = 1;
			for (int i = 3; i <= a;	i ++)
			{
				a3 = a1 + a2;
				a1 = a2;
				a2 = a3;
			}
			cout << a3 << endl;
		}
	}
	return 0;
}