; ModuleID = 'source-C-CXX/60/493.cpp'
source_filename = "source-C-CXX/60/493.cpp"
target datalayout = "e-m:e-p270:32:32-p271:32:32-p272:64:64-i64:64-f80:128-n8:16:32:64-S128"
target triple = "x86_64-pc-linux-gnu"

%"class.std::ios_base::Init" = type { i8 }
%"class.std::basic_istream" = type { i32 (...)**, i64, %"class.std::basic_ios" }
%"class.std::basic_ios" = type { %"class.std::ios_base", %"class.std::basic_ostream"*, i8, i8, %"class.std::basic_streambuf"*, %"class.std::ctype"*, %"class.std::num_put"*, %"class.std::num_get"* }
%"class.std::ios_base" = type { i32 (...)**, i64, i64, i32, i32, i32, %"struct.std::ios_base::_Callback_list"*, %"struct.std::ios_base::_Words", [8 x %"struct.std::ios_base::_Words"], i32, %"struct.std::ios_base::_Words"*, %"class.std::locale" }
%"struct.std::ios_base::_Callback_list" = type { %"struct.std::ios_base::_Callback_list"*, void (i32, %"class.std::ios_base"*, i32)*, i32, i32 }
%"struct.std::ios_base::_Words" = type { i8*, i64 }
%"class.std::locale" = type { %"class.std::locale::_Impl"* }
%"class.std::locale::_Impl" = type { i32, %"class.std::locale::facet"**, i64, %"class.std::locale::facet"**, i8** }
%"class.std::locale::facet" = type <{ i32 (...)**, i32, [4 x i8] }>
%"class.std::basic_ostream" = type { i32 (...)**, %"class.std::basic_ios" }
%"class.std::basic_streambuf" = type { i32 (...)**, i8*, i8*, i8*, i8*, i8*, i8*, %"class.std::locale" }
%"class.std::ctype" = type <{ %"class.std::locale::facet.base", [4 x i8], %struct.__locale_struct*, i8, [7 x i8], i32*, i32*, i16*, i8, [256 x i8], [256 x i8], i8, [6 x i8] }>
%"class.std::locale::facet.base" = type <{ i32 (...)**, i32 }>
%struct.__locale_struct = type { [13 x %struct.__locale_data*], i16*, i32*, i32*, [13 x i8*] }
%struct.__locale_data = type opaque
%"class.std::num_put" = type { %"class.std::locale::facet.base", [4 x i8] }
%"class.std::num_get" = type { %"class.std::locale::facet.base", [4 x i8] }

@_ZStL8__ioinit = internal global %"class.std::ios_base::Init" zeroinitializer, align 1
@__dso_handle = external hidden global i8
@_ZSt3cin = external global %"class.std::basic_istream", align 8
@_ZSt4cout = external global %"class.std::basic_ostream", align 8
@llvm.global_ctors = appending global [1 x { i32, void ()*, i8* }] [{ i32, void ()*, i8* } { i32 65535, void ()* @_GLOBAL__sub_I_493.cpp, i8* null }]

declare void @_ZNSt8ios_base4InitC1Ev(%"class.std::ios_base::Init"* nonnull align 1 dereferenceable(1)) unnamed_addr #0

; Function Attrs: nounwind
declare void @_ZNSt8ios_base4InitD1Ev(%"class.std::ios_base::Init"* nonnull align 1 dereferenceable(1)) unnamed_addr #1

; Function Attrs: nofree nounwind
declare i32 @__cxa_atexit(void (i8*)*, i8*, i8*) local_unnamed_addr #2

; Function Attrs: mustprogress norecurse sspstrong uwtable
define dso_local i32 @main() local_unnamed_addr #3 {
  %1 = alloca i32, align 4
  %2 = alloca i32, align 4
  %3 = bitcast i32* %1 to i8*
  call void @llvm.lifetime.start.p0i8(i64 4, i8* nonnull %3) #7
  %4 = bitcast i32* %2 to i8*
  call void @llvm.lifetime.start.p0i8(i64 4, i8* nonnull %4) #7
  %5 = call nonnull align 8 dereferenceable(16) %"class.std::basic_istream"* @_ZNSirsERi(%"class.std::basic_istream"* nonnull align 8 dereferenceable(16) @_ZSt3cin, i32* nonnull align 4 dereferenceable(4) %2)
  %6 = load i32, i32* %2, align 4, !tbaa !5
  %7 = add nsw i32 %6, -1
  store i32 %7, i32* %2, align 4, !tbaa !5
  %8 = icmp eq i32 %6, 0
  br i1 %8, label %146, label %9

9:                                                ; preds = %0, %139
  %10 = phi i32 [ %141, %139 ], [ undef, %0 ]
  %11 = call nonnull align 8 dereferenceable(16) %"class.std::basic_istream"* @_ZNSirsERi(%"class.std::basic_istream"* nonnull align 8 dereferenceable(16) @_ZSt3cin, i32* nonnull align 4 dereferenceable(4) %1)
  %12 = load i32, i32* %1, align 4, !tbaa !5
  switch i32 %12, label %13 [
    i32 1, label %22
    i32 2, label %52
  ]

13:                                               ; preds = %9
  %14 = icmp slt i32 %12, 3
  br i1 %14, label %94, label %15

15:                                               ; preds = %13
  %16 = add i32 %12, -2
  %17 = add i32 %12, -3
  %18 = and i32 %16, 7
  %19 = icmp ult i32 %17, 7
  br i1 %19, label %82, label %20

20:                                               ; preds = %15
  %21 = and i32 %16, -8
  br label %125

22:                                               ; preds = %9
  %23 = call nonnull align 8 dereferenceable(8) %"class.std::basic_ostream"* @_ZNSolsEi(%"class.std::basic_ostream"* nonnull align 8 dereferenceable(8) @_ZSt4cout, i32 1)
  %24 = bitcast %"class.std::basic_ostream"* %23 to i8**
  %25 = load i8*, i8** %24, align 8, !tbaa !9
  %26 = getelementptr i8, i8* %25, i64 -24
  %27 = bitcast i8* %26 to i64*
  %28 = load i64, i64* %27, align 8
  %29 = bitcast %"class.std::basic_ostream"* %23 to i8*
  %30 = add nsw i64 %28, 240
  %31 = getelementptr inbounds i8, i8* %29, i64 %30
  %32 = bitcast i8* %31 to %"class.std::ctype"**
  %33 = load %"class.std::ctype"*, %"class.std::ctype"** %32, align 8, !tbaa !11
  %34 = icmp eq %"class.std::ctype"* %33, null
  br i1 %34, label %35, label %36

35:                                               ; preds = %22
  call void @_ZSt16__throw_bad_castv() #8
  unreachable

36:                                               ; preds = %22
  %37 = getelementptr inbounds %"class.std::ctype", %"class.std::ctype"* %33, i64 0, i32 8
  %38 = load i8, i8* %37, align 8, !tbaa !15
  %39 = icmp eq i8 %38, 0
  br i1 %39, label %43, label %40

40:                                               ; preds = %36
  %41 = getelementptr inbounds %"class.std::ctype", %"class.std::ctype"* %33, i64 0, i32 9, i64 10
  %42 = load i8, i8* %41, align 1, !tbaa !17
  br label %49

43:                                               ; preds = %36
  call void @_ZNKSt5ctypeIcE13_M_widen_initEv(%"class.std::ctype"* nonnull align 8 dereferenceable(570) %33)
  %44 = bitcast %"class.std::ctype"* %33 to i8 (%"class.std::ctype"*, i8)***
  %45 = load i8 (%"class.std::ctype"*, i8)**, i8 (%"class.std::ctype"*, i8)*** %44, align 8, !tbaa !9
  %46 = getelementptr inbounds i8 (%"class.std::ctype"*, i8)*, i8 (%"class.std::ctype"*, i8)** %45, i64 6
  %47 = load i8 (%"class.std::ctype"*, i8)*, i8 (%"class.std::ctype"*, i8)** %46, align 8
  %48 = call signext i8 %47(%"class.std::ctype"* nonnull align 8 dereferenceable(570) %33, i8 signext 10)
  br label %49

49:                                               ; preds = %40, %43
  %50 = phi i8 [ %42, %40 ], [ %48, %43 ]
  %51 = call nonnull align 8 dereferenceable(8) %"class.std::basic_ostream"* @_ZNSo3putEc(%"class.std::basic_ostream"* nonnull align 8 dereferenceable(8) %23, i8 signext %50)
  br label %139

52:                                               ; preds = %9
  %53 = call nonnull align 8 dereferenceable(8) %"class.std::basic_ostream"* @_ZNSolsEi(%"class.std::basic_ostream"* nonnull align 8 dereferenceable(8) @_ZSt4cout, i32 1)
  %54 = bitcast %"class.std::basic_ostream"* %53 to i8**
  %55 = load i8*, i8** %54, align 8, !tbaa !9
  %56 = getelementptr i8, i8* %55, i64 -24
  %57 = bitcast i8* %56 to i64*
  %58 = load i64, i64* %57, align 8
  %59 = bitcast %"class.std::basic_ostream"* %53 to i8*
  %60 = add nsw i64 %58, 240
  %61 = getelementptr inbounds i8, i8* %59, i64 %60
  %62 = bitcast i8* %61 to %"class.std::ctype"**
  %63 = load %"class.std::ctype"*, %"class.std::ctype"** %62, align 8, !tbaa !11
  %64 = icmp eq %"class.std::ctype"* %63, null
  br i1 %64, label %65, label %66

65:                                               ; preds = %52
  call void @_ZSt16__throw_bad_castv() #8
  unreachable

66:                                               ; preds = %52
  %67 = getelementptr inbounds %"class.std::ctype", %"class.std::ctype"* %63, i64 0, i32 8
  %68 = load i8, i8* %67, align 8, !tbaa !15
  %69 = icmp eq i8 %68, 0
  br i1 %69, label %73, label %70

70:                                               ; preds = %66
  %71 = getelementptr inbounds %"class.std::ctype", %"class.std::ctype"* %63, i64 0, i32 9, i64 10
  %72 = load i8, i8* %71, align 1, !tbaa !17
  br label %79

73:                                               ; preds = %66
  call void @_ZNKSt5ctypeIcE13_M_widen_initEv(%"class.std::ctype"* nonnull align 8 dereferenceable(570) %63)
  %74 = bitcast %"class.std::ctype"* %63 to i8 (%"class.std::ctype"*, i8)***
  %75 = load i8 (%"class.std::ctype"*, i8)**, i8 (%"class.std::ctype"*, i8)*** %74, align 8, !tbaa !9
  %76 = getelementptr inbounds i8 (%"class.std::ctype"*, i8)*, i8 (%"class.std::ctype"*, i8)** %75, i64 6
  %77 = load i8 (%"class.std::ctype"*, i8)*, i8 (%"class.std::ctype"*, i8)** %76, align 8
  %78 = call signext i8 %77(%"class.std::ctype"* nonnull align 8 dereferenceable(570) %63, i8 signext 10)
  br label %79

79:                                               ; preds = %70, %73
  %80 = phi i8 [ %72, %70 ], [ %78, %73 ]
  %81 = call nonnull align 8 dereferenceable(8) %"class.std::basic_ostream"* @_ZNSo3putEc(%"class.std::basic_ostream"* nonnull align 8 dereferenceable(8) %53, i8 signext %80)
  br label %139

82:                                               ; preds = %125, %15
  %83 = phi i32 [ undef, %15 ], [ %136, %125 ]
  %84 = phi i32 [ 1, %15 ], [ %136, %125 ]
  %85 = phi i32 [ 1, %15 ], [ %135, %125 ]
  %86 = icmp eq i32 %18, 0
  br i1 %86, label %94, label %87

87:                                               ; preds = %82, %87
  %88 = phi i32 [ %91, %87 ], [ %84, %82 ]
  %89 = phi i32 [ %88, %87 ], [ %85, %82 ]
  %90 = phi i32 [ %92, %87 ], [ %18, %82 ]
  %91 = add nsw i32 %88, %89
  %92 = add i32 %90, -1
  %93 = icmp eq i32 %92, 0
  br i1 %93, label %94, label %87, !llvm.loop !18

94:                                               ; preds = %82, %87, %13
  %95 = phi i32 [ %10, %13 ], [ %83, %82 ], [ %91, %87 ]
  %96 = call nonnull align 8 dereferenceable(8) %"class.std::basic_ostream"* @_ZNSolsEi(%"class.std::basic_ostream"* nonnull align 8 dereferenceable(8) @_ZSt4cout, i32 %95)
  %97 = bitcast %"class.std::basic_ostream"* %96 to i8**
  %98 = load i8*, i8** %97, align 8, !tbaa !9
  %99 = getelementptr i8, i8* %98, i64 -24
  %100 = bitcast i8* %99 to i64*
  %101 = load i64, i64* %100, align 8
  %102 = bitcast %"class.std::basic_ostream"* %96 to i8*
  %103 = add nsw i64 %101, 240
  %104 = getelementptr inbounds i8, i8* %102, i64 %103
  %105 = bitcast i8* %104 to %"class.std::ctype"**
  %106 = load %"class.std::ctype"*, %"class.std::ctype"** %105, align 8, !tbaa !11
  %107 = icmp eq %"class.std::ctype"* %106, null
  br i1 %107, label %108, label %109

108:                                              ; preds = %94
  call void @_ZSt16__throw_bad_castv() #8
  unreachable

109:                                              ; preds = %94
  %110 = getelementptr inbounds %"class.std::ctype", %"class.std::ctype"* %106, i64 0, i32 8
  %111 = load i8, i8* %110, align 8, !tbaa !15
  %112 = icmp eq i8 %111, 0
  br i1 %112, label %116, label %113

113:                                              ; preds = %109
  %114 = getelementptr inbounds %"class.std::ctype", %"class.std::ctype"* %106, i64 0, i32 9, i64 10
  %115 = load i8, i8* %114, align 1, !tbaa !17
  br label %122

116:                                              ; preds = %109
  call void @_ZNKSt5ctypeIcE13_M_widen_initEv(%"class.std::ctype"* nonnull align 8 dereferenceable(570) %106)
  %117 = bitcast %"class.std::ctype"* %106 to i8 (%"class.std::ctype"*, i8)***
  %118 = load i8 (%"class.std::ctype"*, i8)**, i8 (%"class.std::ctype"*, i8)*** %117, align 8, !tbaa !9
  %119 = getelementptr inbounds i8 (%"class.std::ctype"*, i8)*, i8 (%"class.std::ctype"*, i8)** %118, i64 6
  %120 = load i8 (%"class.std::ctype"*, i8)*, i8 (%"class.std::ctype"*, i8)** %119, align 8
  %121 = call signext i8 %120(%"class.std::ctype"* nonnull align 8 dereferenceable(570) %106, i8 signext 10)
  br label %122

122:                                              ; preds = %113, %116
  %123 = phi i8 [ %115, %113 ], [ %121, %116 ]
  %124 = call nonnull align 8 dereferenceable(8) %"class.std::basic_ostream"* @_ZNSo3putEc(%"class.std::basic_ostream"* nonnull align 8 dereferenceable(8) %96, i8 signext %123)
  br label %139

125:                                              ; preds = %125, %20
  %126 = phi i32 [ 1, %20 ], [ %136, %125 ]
  %127 = phi i32 [ 1, %20 ], [ %135, %125 ]
  %128 = phi i32 [ %21, %20 ], [ %137, %125 ]
  %129 = add nsw i32 %126, %127
  %130 = add nsw i32 %129, %126
  %131 = add nsw i32 %130, %129
  %132 = add nsw i32 %131, %130
  %133 = add nsw i32 %132, %131
  %134 = add nsw i32 %133, %132
  %135 = add nsw i32 %134, %133
  %136 = add nsw i32 %135, %134
  %137 = add i32 %128, -8
  %138 = icmp eq i32 %137, 0
  br i1 %138, label %82, label %125, !llvm.loop !20

139:                                              ; preds = %79, %122, %49
  %140 = phi %"class.std::basic_ostream"* [ %81, %79 ], [ %124, %122 ], [ %51, %49 ]
  %141 = phi i32 [ %10, %79 ], [ %95, %122 ], [ %10, %49 ]
  %142 = call nonnull align 8 dereferenceable(8) %"class.std::basic_ostream"* @_ZNSo5flushEv(%"class.std::basic_ostream"* nonnull align 8 dereferenceable(8) %140)
  %143 = load i32, i32* %2, align 4, !tbaa !5
  %144 = add nsw i32 %143, -1
  store i32 %144, i32* %2, align 4, !tbaa !5
  %145 = icmp eq i32 %143, 0
  br i1 %145, label %146, label %9, !llvm.loop !22

146:                                              ; preds = %139, %0
  call void @llvm.lifetime.end.p0i8(i64 4, i8* nonnull %4) #7
  call void @llvm.lifetime.end.p0i8(i64 4, i8* nonnull %3) #7
  ret i32 0
}

; Function Attrs: argmemonly mustprogress nofree nosync nounwind willreturn
declare void @llvm.lifetime.start.p0i8(i64 immarg, i8* nocapture) #4

declare nonnull align 8 dereferenceable(16) %"class.std::basic_istream"* @_ZNSirsERi(%"class.std::basic_istream"* nonnull align 8 dereferenceable(16), i32* nonnull align 4 dereferenceable(4)) local_unnamed_addr #0

declare nonnull align 8 dereferenceable(8) %"class.std::basic_ostream"* @_ZNSolsEi(%"class.std::basic_ostream"* nonnull align 8 dereferenceable(8), i32) local_unnamed_addr #0

; Function Attrs: argmemonly mustprogress nofree nosync nounwind willreturn
declare void @llvm.lifetime.end.p0i8(i64 immarg, i8* nocapture) #4

declare nonnull align 8 dereferenceable(8) %"class.std::basic_ostream"* @_ZNSo3putEc(%"class.std::basic_ostream"* nonnull align 8 dereferenceable(8), i8 signext) local_unnamed_addr #0

declare nonnull align 8 dereferenceable(8) %"class.std::basic_ostream"* @_ZNSo5flushEv(%"class.std::basic_ostream"* nonnull align 8 dereferenceable(8)) local_unnamed_addr #0

; Function Attrs: noreturn
declare void @_ZSt16__throw_bad_castv() local_unnamed_addr #5

declare void @_ZNKSt5ctypeIcE13_M_widen_initEv(%"class.std::ctype"* nonnull align 8 dereferenceable(570)) local_unnamed_addr #0

; Function Attrs: sspstrong uwtable
define internal void @_GLOBAL__sub_I_493.cpp() #6 section ".text.startup" {
  tail call void @_ZNSt8ios_base4InitC1Ev(%"class.std::ios_base::Init"* nonnull align 1 dereferenceable(1) @_ZStL8__ioinit)
  %1 = tail call i32 @__cxa_atexit(void (i8*)* bitcast (void (%"class.std::ios_base::Init"*)* @_ZNSt8ios_base4InitD1Ev to void (i8*)*), i8* getelementptr inbounds (%"class.std::ios_base::Init", %"class.std::ios_base::Init"* @_ZStL8__ioinit, i64 0, i32 0), i8* nonnull @__dso_handle) #7
  ret void
}


!llvm.module.flags = !{!0, !1, !2, !3}
!llvm.ident = !{!4}

!0 = !{i32 1, !"wchar_size", i32 4}
!1 = !{i32 7, !"PIC Level", i32 2}
!2 = !{i32 7, !"PIE Level", i32 2}
!3 = !{i32 7, !"uwtable", i32 1}
!4 = !{!"clang version 13.0.0"}
!5 = !{!6, !6, i64 0}
!6 = !{!"int", !7, i64 0}
!7 = !{!"omnipotent char", !8, i64 0}
!8 = !{!"Simple C++ TBAA"}
!9 = !{!10, !10, i64 0}
!10 = !{!"vtable pointer", !8, i64 0}
!11 = !{!12, !13, i64 240}
!12 = !{!"_ZTSSt9basic_iosIcSt11char_traitsIcEE", !13, i64 216, !7, i64 224, !14, i64 225, !13, i64 232, !13, i64 240, !13, i64 248, !13, i64 256}
!13 = !{!"any pointer", !7, i64 0}
!14 = !{!"bool", !7, i64 0}
!15 = !{!16, !7, i64 56}
!16 = !{!"_ZTSSt5ctypeIcE", !13, i64 16, !14, i64 24, !13, i64 32, !13, i64 40, !13, i64 48, !7, i64 56, !7, i64 57, !7, i64 313, !7, i64 569}
!17 = !{!7, !7, i64 0}
!18 = distinct !{!18, !19}
!19 = !{!"llvm.loop.unroll.disable"}
!20 = distinct !{!20, !21}
!21 = !{!"llvm.loop.mustprogress"}
!22 = distinct !{!22, !21}
